target datalayout = "e-m:e-p270:32:32-p271:32:32-p272:64:64-i64:64-i128:128-f80:128-n8:16:32:64-S128"
target triple = "x86_64-pc-linux-gnu"

%union.anon = type { i32 }
%struct.ZSTDv06_frameParams_s = type { i64, i32 }

@__const.MEM_isLittleEndian.one = private unnamed_addr constant %union.anon { i32 1 }, align 4
@ZSTDv06_fcs_fieldSize = internal constant [4 x i64] [i64 0, i64 1, i64 2, i64 8], align 16

; Function Attrs: inlinehint nounwind uwtable
define internal i64 @MEM_swap64(i64 noundef %0) #2 {
  %2 = alloca i64, align 8
  store i64 %0, ptr %2, align 8, !tbaa !3
  %3 = load i64, ptr %2, align 8, !tbaa !3
  %4 = shl i64 %3, 56
  %5 = and i64 %4, -72057594037927936
  %6 = load i64, ptr %2, align 8, !tbaa !3
  %7 = shl i64 %6, 40
  %8 = and i64 %7, 71776119061217280
  %9 = or i64 %5, %8
  %10 = load i64, ptr %2, align 8, !tbaa !3
  %11 = shl i64 %10, 24
  %12 = and i64 %11, 280375465082880
  %13 = or i64 %9, %12
  %14 = load i64, ptr %2, align 8, !tbaa !3
  %15 = shl i64 %14, 8
  %16 = and i64 %15, 1095216660480
  %17 = or i64 %13, %16
  %18 = load i64, ptr %2, align 8, !tbaa !3
  %19 = lshr i64 %18, 8
  %20 = and i64 %19, 4278190080
  %21 = or i64 %17, %20
  %22 = load i64, ptr %2, align 8, !tbaa !3
  %23 = lshr i64 %22, 24
  %24 = and i64 %23, 16711680
  %25 = or i64 %21, %24
  %26 = load i64, ptr %2, align 8, !tbaa !3
  %27 = lshr i64 %26, 40
  %28 = and i64 %27, 65280
  %29 = or i64 %25, %28
  %30 = load i64, ptr %2, align 8, !tbaa !3
  %31 = lshr i64 %30, 56
  %32 = and i64 %31, 255
  %33 = or i64 %29, %32
  ret i64 %33
}

; Function Attrs: inlinehint nounwind uwtable
define internal i64 @MEM_read64(ptr noundef %0) #2 {
  %2 = alloca ptr, align 8
  %3 = alloca i64, align 8
  store ptr %0, ptr %2, align 8, !tbaa !12
  call void @llvm.lifetime.start.p0(i64 8, ptr %3) #10
  %4 = load ptr, ptr %2, align 8, !tbaa !12
  call void @llvm.memcpy.p0.p0.i64(ptr align 8 %3, ptr align 1 %4, i64 8, i1 false)
  %5 = load i64, ptr %3, align 8, !tbaa !3
  call void @llvm.lifetime.end.p0(i64 8, ptr %3) #10
  ret i64 %5
}

; Function Attrs: inlinehint nounwind uwtable
define internal zeroext i16 @MEM_read16(ptr noundef %0) #2 {
  %2 = alloca ptr, align 8
  %3 = alloca i16, align 2
  store ptr %0, ptr %2, align 8, !tbaa !12
  call void @llvm.lifetime.start.p0(i64 2, ptr %3) #10
  %4 = load ptr, ptr %2, align 8, !tbaa !12
  call void @llvm.memcpy.p0.p0.i64(ptr align 2 %3, ptr align 1 %4, i64 2, i1 false)
  %5 = load i16, ptr %3, align 2, !tbaa !20
  call void @llvm.lifetime.end.p0(i64 2, ptr %3) #10
  ret i16 %5
}

; Function Attrs: inlinehint nounwind uwtable
define internal i32 @MEM_swap32(i32 noundef %0) #2 {
  %2 = alloca i32, align 4
  store i32 %0, ptr %2, align 4, !tbaa !15
  %3 = load i32, ptr %2, align 4, !tbaa !15
  %4 = shl i32 %3, 24
  %5 = and i32 %4, -16777216
  %6 = load i32, ptr %2, align 4, !tbaa !15
  %7 = shl i32 %6, 8
  %8 = and i32 %7, 16711680
  %9 = or i32 %5, %8
  %10 = load i32, ptr %2, align 4, !tbaa !15
  %11 = lshr i32 %10, 8
  %12 = and i32 %11, 65280
  %13 = or i32 %9, %12
  %14 = load i32, ptr %2, align 4, !tbaa !15
  %15 = lshr i32 %14, 24
  %16 = and i32 %15, 255
  %17 = or i32 %13, %16
  ret i32 %17
}

; Function Attrs: inlinehint nounwind uwtable
define internal i32 @MEM_read32(ptr noundef %0) #2 {
  %2 = alloca ptr, align 8
  %3 = alloca i32, align 4
  store ptr %0, ptr %2, align 8, !tbaa !12
  call void @llvm.lifetime.start.p0(i64 4, ptr %3) #10
  %4 = load ptr, ptr %2, align 8, !tbaa !12
  call void @llvm.memcpy.p0.p0.i64(ptr align 4 %3, ptr align 1 %4, i64 4, i1 false)
  %5 = load i32, ptr %3, align 4, !tbaa !15
  call void @llvm.lifetime.end.p0(i64 4, ptr %3) #10
  ret i32 %5
}

; Function Attrs: inlinehint nounwind uwtable
define internal i32 @MEM_isLittleEndian() #2 {
  %1 = alloca %union.anon, align 4
  call void @llvm.lifetime.start.p0(i64 4, ptr %1) #10
  call void @llvm.memcpy.p0.p0.i64(ptr align 4 %1, ptr align 4 @__const.MEM_isLittleEndian.one, i64 4, i1 false)
  %2 = getelementptr inbounds [4 x i8], ptr %1, i64 0, i64 0
  %3 = load i8, ptr %2, align 4, !tbaa !34
  %4 = zext i8 %3 to i32
  call void @llvm.lifetime.end.p0(i64 4, ptr %1) #10
  ret i32 %4
}

; Function Attrs: inlinehint nounwind uwtable
define internal i64 @MEM_readLE64(ptr noundef %0) #2 {
  %2 = alloca i64, align 8
  %3 = alloca ptr, align 8
  store ptr %0, ptr %3, align 8, !tbaa !12
  %4 = call i32 @MEM_isLittleEndian()
  %5 = icmp ne i32 %4, 0
  br i1 %5, label %6, label %9

6:                                                ; preds = %1
  %7 = load ptr, ptr %3, align 8, !tbaa !12
  %8 = call i64 @MEM_read64(ptr noundef %7)
  store i64 %8, ptr %2, align 8
  br label %13

9:                                                ; preds = %1
  %10 = load ptr, ptr %3, align 8, !tbaa !12
  %11 = call i64 @MEM_read64(ptr noundef %10)
  %12 = call i64 @MEM_swap64(i64 noundef %11)
  store i64 %12, ptr %2, align 8
  br label %13

13:                                               ; preds = %9, %6
  %14 = load i64, ptr %2, align 8
  ret i64 %14
}

; Function Attrs: inlinehint nounwind uwtable
define internal zeroext i16 @MEM_readLE16(ptr noundef %0) #2 {
  %2 = alloca i16, align 2
  %3 = alloca ptr, align 8
  %4 = alloca ptr, align 8
  store ptr %0, ptr %3, align 8, !tbaa !12
  %5 = call i32 @MEM_isLittleEndian()
  %6 = icmp ne i32 %5, 0
  br i1 %6, label %7, label %10

7:                                                ; preds = %1
  %8 = load ptr, ptr %3, align 8, !tbaa !12
  %9 = call zeroext i16 @MEM_read16(ptr noundef %8)
  store i16 %9, ptr %2, align 2
  br label %23

10:                                               ; preds = %1
  call void @llvm.lifetime.start.p0(i64 8, ptr %4) #10
  %11 = load ptr, ptr %3, align 8, !tbaa !12
  store ptr %11, ptr %4, align 8, !tbaa !13
  %12 = load ptr, ptr %4, align 8, !tbaa !13
  %13 = getelementptr inbounds i8, ptr %12, i64 0
  %14 = load i8, ptr %13, align 1, !tbaa !34
  %15 = zext i8 %14 to i32
  %16 = load ptr, ptr %4, align 8, !tbaa !13
  %17 = getelementptr inbounds i8, ptr %16, i64 1
  %18 = load i8, ptr %17, align 1, !tbaa !34
  %19 = zext i8 %18 to i32
  %20 = shl i32 %19, 8
  %21 = add nsw i32 %15, %20
  %22 = trunc i32 %21 to i16
  store i16 %22, ptr %2, align 2
  call void @llvm.lifetime.end.p0(i64 8, ptr %4) #10
  br label %23

23:                                               ; preds = %10, %7
  %24 = load i16, ptr %2, align 2
  ret i16 %24
}

; Function Attrs: nounwind uwtable
define internal i64 @ZSTDv06_frameHeaderSize(ptr noundef %0, i64 noundef %1) #0 {
  %3 = alloca i64, align 8
  %4 = alloca ptr, align 8
  %5 = alloca i64, align 8
  %6 = alloca i32, align 4
  store ptr %0, ptr %4, align 8, !tbaa !12
  store i64 %1, ptr %5, align 8, !tbaa !3
  %7 = load i64, ptr %5, align 8, !tbaa !3
  %8 = icmp ult i64 %7, 5
  br i1 %8, label %9, label %10

9:                                                ; preds = %2
  store i64 -72, ptr %3, align 8
  br label %21

10:                                               ; preds = %2
  call void @llvm.lifetime.start.p0(i64 4, ptr %6) #10
  %11 = load ptr, ptr %4, align 8, !tbaa !12
  %12 = getelementptr inbounds i8, ptr %11, i64 4
  %13 = load i8, ptr %12, align 1, !tbaa !34
  %14 = zext i8 %13 to i32
  %15 = ashr i32 %14, 6
  store i32 %15, ptr %6, align 4, !tbaa !15
  %16 = load i32, ptr %6, align 4, !tbaa !15
  %17 = zext i32 %16 to i64
  %18 = getelementptr inbounds nuw [4 x i64], ptr @ZSTDv06_fcs_fieldSize, i64 0, i64 %17
  %19 = load i64, ptr %18, align 8, !tbaa !3
  %20 = add i64 5, %19
  store i64 %20, ptr %3, align 8
  call void @llvm.lifetime.end.p0(i64 4, ptr %6) #10
  br label %21

21:                                               ; preds = %10, %9
  %22 = load i64, ptr %3, align 8
  ret i64 %22
}

; Function Attrs: inlinehint nounwind uwtable
define internal i32 @MEM_readLE32(ptr noundef %0) #2 {
  %2 = alloca i32, align 4
  %3 = alloca ptr, align 8
  store ptr %0, ptr %3, align 8, !tbaa !12
  %4 = call i32 @MEM_isLittleEndian()
  %5 = icmp ne i32 %4, 0
  br i1 %5, label %6, label %9

6:                                                ; preds = %1
  %7 = load ptr, ptr %3, align 8, !tbaa !12
  %8 = call i32 @MEM_read32(ptr noundef %7)
  store i32 %8, ptr %2, align 4
  br label %13

9:                                                ; preds = %1
  %10 = load ptr, ptr %3, align 8, !tbaa !12
  %11 = call i32 @MEM_read32(ptr noundef %10)
  %12 = call i32 @MEM_swap32(i32 noundef %11)
  store i32 %12, ptr %2, align 4
  br label %13

13:                                               ; preds = %9, %6
  %14 = load i32, ptr %2, align 4
  ret i32 %14
}

; Function Attrs: nounwind uwtable
define i64 @ZSTDv06_getFrameParams(ptr noundef %0, ptr noundef %1, i64 noundef %2) #0 {
  %4 = alloca i64, align 8
  %5 = alloca ptr, align 8
  %6 = alloca ptr, align 8
  %7 = alloca i64, align 8
  %8 = alloca ptr, align 8
  %9 = alloca i32, align 4
  %10 = alloca i64, align 8
  %11 = alloca i8, align 1
  store ptr %0, ptr %5, align 8, !tbaa !87
  store ptr %1, ptr %6, align 8, !tbaa !12
  store i64 %2, ptr %7, align 8, !tbaa !3
  call void @llvm.lifetime.start.p0(i64 8, ptr %8) #10
  %12 = load ptr, ptr %6, align 8, !tbaa !12
  store ptr %12, ptr %8, align 8, !tbaa !13
  %13 = load i64, ptr %7, align 8, !tbaa !3
  %14 = icmp ult i64 %13, 5
  br i1 %14, label %15, label %16

15:                                               ; preds = %3
  store i64 5, ptr %4, align 8
  store i32 1, ptr %9, align 4
  br label %83

16:                                               ; preds = %3
  %17 = load ptr, ptr %6, align 8, !tbaa !12
  %18 = call i32 @MEM_readLE32(ptr noundef %17)
  %19 = icmp ne i32 %18, -47205082
  br i1 %19, label %20, label %21

20:                                               ; preds = %16
  store i64 -10, ptr %4, align 8
  store i32 1, ptr %9, align 4
  br label %83

21:                                               ; preds = %16
  call void @llvm.lifetime.start.p0(i64 8, ptr %10) #10
  %22 = load ptr, ptr %6, align 8, !tbaa !12
  %23 = load i64, ptr %7, align 8, !tbaa !3
  %24 = call i64 @ZSTDv06_frameHeaderSize(ptr noundef %22, i64 noundef %23)
  store i64 %24, ptr %10, align 8, !tbaa !3
  %25 = load i64, ptr %7, align 8, !tbaa !3
  %26 = load i64, ptr %10, align 8, !tbaa !3
  %27 = icmp ult i64 %25, %26
  br i1 %27, label %28, label %30

28:                                               ; preds = %21
  %29 = load i64, ptr %10, align 8, !tbaa !3
  store i64 %29, ptr %4, align 8
  store i32 1, ptr %9, align 4
  br label %31

30:                                               ; preds = %21
  store i32 0, ptr %9, align 4
  br label %31

31:                                               ; preds = %30, %28
  call void @llvm.lifetime.end.p0(i64 8, ptr %10) #10
  %32 = load i32, ptr %9, align 4
  switch i32 %32, label %83 [
    i32 0, label %33
  ]

33:                                               ; preds = %31
  %34 = load ptr, ptr %5, align 8, !tbaa !87
  call void @llvm.memset.p0.i64(ptr align 8 %34, i8 0, i64 16, i1 false)
  call void @llvm.lifetime.start.p0(i64 1, ptr %11) #10
  %35 = load ptr, ptr %8, align 8, !tbaa !13
  %36 = getelementptr inbounds i8, ptr %35, i64 4
  %37 = load i8, ptr %36, align 1, !tbaa !34
  store i8 %37, ptr %11, align 1, !tbaa !34
  %38 = load i8, ptr %11, align 1, !tbaa !34
  %39 = zext i8 %38 to i32
  %40 = and i32 %39, 15
  %41 = add nsw i32 %40, 12
  %42 = load ptr, ptr %5, align 8, !tbaa !87
  %43 = getelementptr inbounds nuw %struct.ZSTDv06_frameParams_s, ptr %42, i32 0, i32 1
  store i32 %41, ptr %43, align 8, !tbaa !89
  %44 = load i8, ptr %11, align 1, !tbaa !34
  %45 = zext i8 %44 to i32
  %46 = and i32 %45, 32
  %47 = icmp ne i32 %46, 0
  br i1 %47, label %48, label %49

48:                                               ; preds = %33
  store i64 -14, ptr %4, align 8
  store i32 1, ptr %9, align 4
  br label %80

49:                                               ; preds = %33
  %50 = load i8, ptr %11, align 1, !tbaa !34
  %51 = zext i8 %50 to i32
  %52 = ashr i32 %51, 6
  switch i32 %52, label %53 [
    i32 0, label %54
    i32 1, label %57
    i32 2, label %64
    i32 3, label %73
  ]

53:                                               ; preds = %49
  br label %54

54:                                               ; preds = %49, %53
  %55 = load ptr, ptr %5, align 8, !tbaa !87
  %56 = getelementptr inbounds nuw %struct.ZSTDv06_frameParams_s, ptr %55, i32 0, i32 0
  store i64 0, ptr %56, align 8, !tbaa !90
  br label %79

57:                                               ; preds = %49
  %58 = load ptr, ptr %8, align 8, !tbaa !13
  %59 = getelementptr inbounds i8, ptr %58, i64 5
  %60 = load i8, ptr %59, align 1, !tbaa !34
  %61 = zext i8 %60 to i64
  %62 = load ptr, ptr %5, align 8, !tbaa !87
  %63 = getelementptr inbounds nuw %struct.ZSTDv06_frameParams_s, ptr %62, i32 0, i32 0
  store i64 %61, ptr %63, align 8, !tbaa !90
  br label %79

64:                                               ; preds = %49
  %65 = load ptr, ptr %8, align 8, !tbaa !13
  %66 = getelementptr inbounds i8, ptr %65, i64 5
  %67 = call zeroext i16 @MEM_readLE16(ptr noundef %66)
  %68 = zext i16 %67 to i32
  %69 = add nsw i32 %68, 256
  %70 = sext i32 %69 to i64
  %71 = load ptr, ptr %5, align 8, !tbaa !87
  %72 = getelementptr inbounds nuw %struct.ZSTDv06_frameParams_s, ptr %71, i32 0, i32 0
  store i64 %70, ptr %72, align 8, !tbaa !90
  br label %79

73:                                               ; preds = %49
  %74 = load ptr, ptr %8, align 8, !tbaa !13
  %75 = getelementptr inbounds i8, ptr %74, i64 5
  %76 = call i64 @MEM_readLE64(ptr noundef %75)
  %77 = load ptr, ptr %5, align 8, !tbaa !87
  %78 = getelementptr inbounds nuw %struct.ZSTDv06_frameParams_s, ptr %77, i32 0, i32 0
  store i64 %76, ptr %78, align 8, !tbaa !90
  br label %79

79:                                               ; preds = %73, %64, %57, %54
  store i32 0, ptr %9, align 4
  br label %80

80:                                               ; preds = %79, %48
  call void @llvm.lifetime.end.p0(i64 1, ptr %11) #10
  %81 = load i32, ptr %9, align 4
  switch i32 %81, label %83 [
    i32 0, label %82
  ]

82:                                               ; preds = %80
  store i64 0, ptr %4, align 8
  store i32 1, ptr %9, align 4
  br label %83

83:                                               ; preds = %82, %80, %31, %20, %15
  call void @llvm.lifetime.end.p0(i64 8, ptr %8) #10
  %84 = load i64, ptr %4, align 8
  ret i64 %84
}