; Function Attrs: mustprogress nofree norecurse nosync nounwind willreturn memory(argmem: readwrite) uwtable
define range(i64 5, 1) i64 @ZSTDv06_getFrameParams(ptr noundef writeonly captures(none) %0, ptr noundef readonly captures(none) %1, i64 noundef %2) local_unnamed_addr #18 {
  %4 = icmp ult i64 %2, 5
  br i1 %4, label %32, label %5

5:                                                ; preds = %3
  %.val = load i32, ptr %1, align 1
  %.not = icmp eq i32 %.val, -47205082
  br i1 %.not, label %ZSTDv06_frameHeaderSize.exit, label %32

ZSTDv06_frameHeaderSize.exit:                     ; preds = %5
  %6 = getelementptr inbounds nuw i8, ptr %1, i64 4
  %7 = load i8, ptr %6, align 1, !tbaa !27
  %8 = lshr i8 %7, 6
  %9 = zext nneg i8 %8 to i64
  %10 = getelementptr inbounds nuw [4 x i64], ptr @ZSTDv06_fcs_fieldSize, i64 0, i64 %9
  %11 = load i64, ptr %10, align 8, !tbaa !75
  %12 = add i64 %11, 5
  %.not27 = icmp ult i64 %2, %12
  br i1 %.not27, label %32, label %13

13:                                               ; preds = %ZSTDv06_frameHeaderSize.exit
  tail call void @llvm.memset.p0.i64(ptr noundef nonnull align 8 dereferenceable(16) %0, i8 0, i64 16, i1 false)
  %14 = load i8, ptr %6, align 1, !tbaa !27
  %15 = zext i8 %14 to i32
  %16 = and i32 %15, 15
  %17 = add nuw nsw i32 %16, 12
  %18 = getelementptr inbounds nuw i8, ptr %0, i64 8
  store i32 %17, ptr %18, align 8, !tbaa !76
  %19 = and i32 %15, 32
  %.not28 = icmp eq i32 %19, 0
  br i1 %.not28, label %20, label %32

20:                                               ; preds = %13
  %21 = lshr i32 %15, 6
  switch i32 %21, label %default.unreachable31 [
    i32 0, label %.sink.split
    i32 1, label %22
    i32 2, label %26
    i32 3, label %30
  ]

default.unreachable31:                            ; preds = %20
  unreachable

22:                                               ; preds = %20
  %23 = getelementptr inbounds nuw i8, ptr %1, i64 5
  %24 = load i8, ptr %23, align 1, !tbaa !27
  %25 = zext i8 %24 to i64
  br label %.sink.split

26:                                               ; preds = %20
  %27 = getelementptr inbounds nuw i8, ptr %1, i64 5
  %.val30 = load i16, ptr %27, align 1
  %28 = zext i16 %.val30 to i64
  %29 = add nuw nsw i64 %28, 256
  br label %.sink.split

30:                                               ; preds = %20
  %31 = getelementptr inbounds nuw i8, ptr %1, i64 5
  %.val29 = load i64, ptr %31, align 1
  br label %.sink.split

.sink.split:                                      ; preds = %20, %22, %26, %30
  %.val29.sink = phi i64 [ %.val29, %30 ], [ %29, %26 ], [ %25, %22 ], [ 0, %20 ]
  store i64 %.val29.sink, ptr %0, align 8, !tbaa !77
  br label %32

32:                                               ; preds = %.sink.split, %13, %5, %3, %ZSTDv06_frameHeaderSize.exit
  %.0 = phi i64 [ %12, %ZSTDv06_frameHeaderSize.exit ], [ 5, %3 ], [ -10, %5 ], [ -14, %13 ], [ 0, %.sink.split ]
  ret i64 %.0
}